; Function Attrs: null_pointer_is_valid sspstrong uwtable
define internal i32 @glusterfs_gfs3_3_op_create_call(ptr noundef %0, ptr noundef readonly captures(none) %1, ptr noundef %2, ptr readnone captures(none) %3) #0 {
  %5 = alloca ptr, align 8
  call void @llvm.lifetime.start.p0(i64 8, ptr nonnull %5) #4
  store ptr null, ptr %5, align 8
  %6 = load i32, ptr @hf_glusterfs_pargfid, align 4
  %7 = tail call ptr @proto_tree_add_item(ptr noundef %2, i32 noundef %6, ptr noundef %0, i32 noundef 0, i32 noundef 16, i32 noundef 0)
  %8 = tail call fastcc i32 @glusterfs_rpc_dissect_flags(ptr noundef %2, ptr noundef %0, i32 noundef 16)
  %9 = load i32, ptr @hf_glusterfs_mode, align 4
  %10 = load i32, ptr @ett_glusterfs_mode, align 4
  %11 = tail call ptr @proto_tree_add_bitmask(ptr noundef %2, ptr noundef %0, i32 noundef %8, i32 noundef %9, i32 noundef %10, ptr noundef nonnull @glusterfs_rpc_dissect_mode.mode_bits, i32 noundef 0)
  %12 = add i32 %8, 4
  %13 = load i32, ptr @hf_glusterfs_umask, align 4
  %14 = load i32, ptr @ett_glusterfs_mode, align 4
  %15 = tail call ptr @proto_tree_add_bitmask(ptr noundef %2, ptr noundef %0, i32 noundef %12, i32 noundef %13, i32 noundef %14, ptr noundef nonnull @glusterfs_rpc_dissect_mode.mode_bits, i32 noundef 0)
  %16 = add i32 %8, 8
  %17 = load i32, ptr @hf_glusterfs_bname, align 4
  %18 = call i32 @dissect_rpc_string(ptr noundef %0, ptr noundef %2, i32 noundef %17, i32 noundef %16, ptr noundef nonnull %5)
  %19 = load i32, ptr @hf_glusterfs_dict, align 4
  %20 = call i32 @gluster_rpc_dissect_dict(ptr noundef %2, ptr noundef %0, i32 noundef %19, i32 noundef %18)
  %21 = getelementptr inbounds nuw i8, ptr %1, i64 8
  %22 = load ptr, ptr %21, align 8
  %23 = load ptr, ptr %5, align 8
  call void (ptr, i32, ptr, ...) @col_append_fstr(ptr noundef %22, i32 noundef 25, ptr noundef nonnull @.str.573, ptr noundef %23)
  call void @llvm.lifetime.end.p0(i64 8, ptr nonnull %5) #4
  ret i32 %20
}